; Function Attrs: nofree norecurse nosync nounwind memory(argmem: readwrite) uwtable
define internal void @iadst_idct_4x4_add_c(ptr noundef captures(none) %0, i64 noundef %1, ptr noundef captures(none) %2, i32 %3) #2 {
  %5 = alloca [16 x i32], align 16
  %6 = alloca [4 x i32], align 16
  call void @llvm.lifetime.start.p0(i64 64, ptr nonnull %5) #12
  call void @llvm.lifetime.start.p0(i64 16, ptr nonnull %6) #12
  br label %7

7:                                                ; preds = %4, %7
  %indvars.iv = phi i64 [ 0, %4 ], [ %indvars.iv.next, %7 ]
  %8 = getelementptr inbounds nuw i32, ptr %2, i64 %indvars.iv
  %.idx = shl nuw nsw i64 %indvars.iv, 4
  %9 = getelementptr inbounds nuw i8, ptr %5, i64 %.idx
  %10 = load i32, ptr %8, align 4, !tbaa !151
  %11 = sext i32 %10 to i64
  %12 = mul nsw i64 %11, 5283
  %13 = getelementptr inbounds nuw i8, ptr %8, i64 32
  %14 = load i32, ptr %13, align 4, !tbaa !151
  %15 = sext i32 %14 to i64
  %16 = mul nsw i64 %15, 15212
  %17 = add nsw i64 %16, %12
  %18 = getelementptr inbounds nuw i8, ptr %8, i64 48
  %19 = load i32, ptr %18, align 4, !tbaa !151
  %20 = sext i32 %19 to i64
  %21 = mul nsw i64 %20, 9929
  %22 = add nsw i64 %17, %21
  %23 = mul nsw i64 %11, 9929
  %.neg.i23 = mul nsw i64 %15, -5283
  %24 = add nsw i64 %.neg.i23, %23
  %.neg31.i = mul nsw i64 %20, -15212
  %25 = add nsw i64 %24, %.neg31.i
  %26 = sub nsw i64 %11, %15
  %27 = add nsw i64 %26, %20
  %28 = mul nsw i64 %27, 13377
  %29 = getelementptr inbounds nuw i8, ptr %8, i64 16
  %30 = load i32, ptr %29, align 4, !tbaa !151
  %31 = sext i32 %30 to i64
  %32 = mul nsw i64 %31, 13377
  %33 = add nsw i64 %32, 8192
  %34 = add nsw i64 %33, %22
  %35 = lshr i64 %34, 14
  %36 = trunc i64 %35 to i32
  store i32 %36, ptr %9, align 16, !tbaa !151
  %37 = add nsw i64 %33, %25
  %38 = lshr i64 %37, 14
  %39 = trunc i64 %38 to i32
  %40 = getelementptr inbounds nuw i8, ptr %9, i64 4
  store i32 %39, ptr %40, align 4, !tbaa !151
  %41 = add nsw i64 %28, 8192
  %42 = lshr i64 %41, 14
  %43 = trunc i64 %42 to i32
  %44 = getelementptr inbounds nuw i8, ptr %9, i64 8
  store i32 %43, ptr %44, align 8, !tbaa !151
  %45 = add nsw i64 %25, 8192
  %46 = add nsw i64 %45, %22
  %47 = sub nsw i64 %46, %32
  %48 = lshr i64 %47, 14
  %49 = trunc i64 %48 to i32
  %50 = getelementptr inbounds nuw i8, ptr %9, i64 12
  store i32 %49, ptr %50, align 4, !tbaa !151
  %indvars.iv.next = add nuw nsw i64 %indvars.iv, 1
  %exitcond.not = icmp eq i64 %indvars.iv.next, 4
  br i1 %exitcond.not, label %51, label %7, !llvm.loop !158

51:                                               ; preds = %7
  %52 = lshr i64 %1, 1
  tail call void @llvm.memset.p0.i64(ptr noundef nonnull align 4 dereferenceable(64) %2, i8 0, i64 64, i1 false)
  %53 = getelementptr inbounds nuw i8, ptr %6, i64 4
  %54 = getelementptr inbounds nuw i8, ptr %6, i64 8
  %55 = getelementptr inbounds nuw i8, ptr %6, i64 12
  br label %56

56:                                               ; preds = %51, %107
  %indvars.iv34 = phi i64 [ 0, %51 ], [ %indvars.iv.next35, %107 ]
  %.028 = phi ptr [ %0, %51 ], [ %108, %107 ]
  %57 = getelementptr inbounds nuw i32, ptr %5, i64 %indvars.iv34
  %58 = load i32, ptr %57, align 4, !tbaa !151
  %59 = sext i32 %58 to i64
  %60 = getelementptr inbounds nuw i8, ptr %57, i64 32
  %61 = load i32, ptr %60, align 4, !tbaa !151
  %62 = sext i32 %61 to i64
  %63 = add nsw i64 %62, %59
  %64 = mul nsw i64 %63, 11585
  %65 = add nsw i64 %64, 8192
  %66 = ashr i64 %65, 14
  %67 = sub nsw i64 %59, %62
  %68 = mul nsw i64 %67, 11585
  %69 = add nsw i64 %68, 8192
  %70 = ashr i64 %69, 14
  %71 = getelementptr inbounds nuw i8, ptr %57, i64 16
  %72 = load i32, ptr %71, align 4, !tbaa !151
  %73 = sext i32 %72 to i64
  %74 = mul nsw i64 %73, 6270
  %75 = getelementptr inbounds nuw i8, ptr %57, i64 48
  %76 = load i32, ptr %75, align 4, !tbaa !151
  %77 = sext i32 %76 to i64
  %.neg.i = mul nsw i64 %77, -15137
  %78 = add nsw i64 %74, 8192
  %79 = add nsw i64 %78, %.neg.i
  %80 = ashr i64 %79, 14
  %81 = mul nsw i64 %73, 15137
  %82 = mul nsw i64 %77, 6270
  %83 = add nsw i64 %81, 8192
  %84 = add nsw i64 %83, %82
  %85 = ashr i64 %84, 14
  %86 = add nsw i64 %85, %66
  %87 = trunc i64 %86 to i32
  store i32 %87, ptr %6, align 16, !tbaa !151
  %88 = add nsw i64 %80, %70
  %89 = trunc i64 %88 to i32
  store i32 %89, ptr %53, align 4, !tbaa !151
  %90 = sub nsw i64 %70, %80
  %91 = trunc i64 %90 to i32
  store i32 %91, ptr %54, align 8, !tbaa !151
  %92 = sub nsw i64 %66, %85
  %93 = trunc i64 %92 to i32
  store i32 %93, ptr %55, align 4, !tbaa !151
  br label %94

94:                                               ; preds = %56, %94
  %indvars.iv30 = phi i64 [ 0, %56 ], [ %indvars.iv.next31, %94 ]
  %95 = mul nuw nsw i64 %52, %indvars.iv30
  %96 = getelementptr inbounds nuw i16, ptr %.028, i64 %95
  %97 = load i16, ptr %96, align 2, !tbaa !9
  %98 = zext i16 %97 to i32
  %99 = getelementptr inbounds nuw [4 x i32], ptr %6, i64 0, i64 %indvars.iv30
  %100 = load i32, ptr %99, align 4, !tbaa !151
  %101 = add i32 %100, 8
  %102 = ashr i32 %101, 4
  %103 = add nsw i32 %102, %98
  %104 = tail call i32 @llvm.smax.i32(i32 %103, i32 0)
  %105 = tail call i32 @llvm.umin.i32(i32 %104, i32 1023)
  %106 = trunc nuw nsw i32 %105 to i16
  store i16 %106, ptr %96, align 2, !tbaa !9
  %indvars.iv.next31 = add nuw nsw i64 %indvars.iv30, 1
  %exitcond33.not = icmp eq i64 %indvars.iv.next31, 4
  br i1 %exitcond33.not, label %107, label %94, !llvm.loop !159

107:                                              ; preds = %94
  %108 = getelementptr inbounds nuw i8, ptr %.028, i64 2
  %indvars.iv.next35 = add nuw nsw i64 %indvars.iv34, 1
  %exitcond37.not = icmp eq i64 %indvars.iv.next35, 4
  br i1 %exitcond37.not, label %109, label %56, !llvm.loop !160

109:                                              ; preds = %107
  call void @llvm.lifetime.end.p0(i64 16, ptr nonnull %6) #12
  call void @llvm.lifetime.end.p0(i64 64, ptr nonnull %5) #12
  ret void
}